target datalayout = "e-m:e-p270:32:32-p271:32:32-p272:64:64-i64:64-i128:128-f80:128-n8:16:32:64-S128"
target triple = "x86_64-pc-linux-gnu"

%struct.functionsLibCtx = type { ptr, ptr, i64, ptr }

@curr_functions_lib_ctx = internal global ptr null, align 8

; Function Attrs: nounwind uwtable
define dso_local void @functionsLibCtxFree(ptr noundef %0) #1 {
  %2 = alloca ptr, align 8
  store ptr %0, ptr %2, align 8, !tbaa !38
  %3 = load ptr, ptr %2, align 8, !tbaa !38
  call void @functionsLibCtxClear(ptr noundef %3)
  %4 = load ptr, ptr %2, align 8, !tbaa !38
  %5 = getelementptr inbounds nuw %struct.functionsLibCtx, ptr %4, i32 0, i32 1
  %6 = load ptr, ptr %5, align 8, !tbaa !40
  call void @dictRelease(ptr noundef %6)
  %7 = load ptr, ptr %2, align 8, !tbaa !38
  %8 = getelementptr inbounds nuw %struct.functionsLibCtx, ptr %7, i32 0, i32 0
  %9 = load ptr, ptr %8, align 8, !tbaa !42
  call void @dictRelease(ptr noundef %9)
  %10 = load ptr, ptr %2, align 8, !tbaa !38
  %11 = getelementptr inbounds nuw %struct.functionsLibCtx, ptr %10, i32 0, i32 3
  %12 = load ptr, ptr %11, align 8, !tbaa !43
  call void @dictRelease(ptr noundef %12)
  %13 = load ptr, ptr %2, align 8, !tbaa !38
  call void @zfree(ptr noundef %13)
  ret void
}

; Function Attrs: nounwind uwtable
define dso_local void @functionsLibCtxSwapWithCurrent(ptr noundef %0) #1 {
  %2 = alloca ptr, align 8
  store ptr %0, ptr %2, align 8, !tbaa !38
  %3 = load ptr, ptr @curr_functions_lib_ctx, align 8, !tbaa !38
  call void @functionsLibCtxFree(ptr noundef %3)
  %4 = load ptr, ptr %2, align 8, !tbaa !38
  store ptr %4, ptr @curr_functions_lib_ctx, align 8, !tbaa !38
  ret void
}