; Function Attrs: nounwind uwtable
define dso_local void @functionsLibCtxSwapWithCurrent(ptr noundef %0) local_unnamed_addr #1 {
  %2 = load ptr, ptr @curr_functions_lib_ctx, align 8, !tbaa !40
  tail call void @functionsLibCtxClear(ptr noundef %2)
  %3 = getelementptr inbounds nuw i8, ptr %2, i64 8
  %4 = load ptr, ptr %3, align 8, !tbaa !33
  tail call void @dictRelease(ptr noundef %4) #12
  %5 = load ptr, ptr %2, align 8, !tbaa !35
  tail call void @dictRelease(ptr noundef %5) #12
  %6 = getelementptr inbounds nuw i8, ptr %2, i64 24
  %7 = load ptr, ptr %6, align 8, !tbaa !36
  tail call void @dictRelease(ptr noundef %7) #12
  tail call void @zfree(ptr noundef nonnull %2) #12
  store ptr %0, ptr @curr_functions_lib_ctx, align 8, !tbaa !40
  ret void
}